; Function Attrs: nounwind uwtable
define dso_local void @sema_erase_unwrapped(ptr nocapture noundef %0, ptr noundef %1) local_unnamed_addr #2 {
  %3 = tail call noundef ptr @vmem_alloc(ptr noundef nonnull @decl_arena, i64 noundef 136) #10
  tail call void @llvm.memcpy.p0.p0.i64(ptr noundef nonnull align 8 dereferenceable(136) %3, ptr noundef nonnull align 8 dereferenceable(136) %1, i64 136, i1 false)
  %4 = getelementptr inbounds i8, ptr %3, i64 80
  %5 = load i32, ptr %4, align 8
  %6 = and i32 %5, -256
  %7 = or disjoint i32 %6, 10
  store i32 %7, ptr %4, align 8
  %8 = getelementptr inbounds i8, ptr %3, i64 88
  store ptr %1, ptr %8, align 8
  %9 = getelementptr inbounds i8, ptr %1, i64 72
  %10 = load ptr, ptr %9, align 8
  %11 = getelementptr inbounds i8, ptr %3, i64 72
  store ptr %10, ptr %11, align 8
  %12 = getelementptr inbounds i8, ptr %3, i64 24
  %13 = load i64, ptr %12, align 8
  %14 = and i64 %13, -897
  %15 = or disjoint i64 %14, 256
  store i64 %15, ptr %12, align 8
  %16 = getelementptr inbounds i8, ptr %0, i64 240
  %17 = load ptr, ptr %16, align 8
  %.not.i = icmp eq ptr %17, null
  br i1 %.not.i, label %.thread.i, label %21

.thread.i:                                        ; preds = %2
  %18 = getelementptr inbounds i8, ptr %0, i64 264
  %19 = load i32, ptr %18, align 8
  %20 = zext i32 %19 to i64
  br label %.preheader.preheader.i

21:                                               ; preds = %2
  %22 = getelementptr inbounds i8, ptr %17, i64 -8
  %23 = load i32, ptr %22, align 4
  %24 = zext i32 %23 to i64
  %25 = getelementptr inbounds i8, ptr %0, i64 264
  %26 = load i32, ptr %25, align 8
  %27 = zext i32 %26 to i64
  %.not31.i = icmp ugt i32 %23, %26
  br i1 %.not31.i, label %63, label %.preheader.preheader.i

.preheader.preheader.i:                           ; preds = %21, %.thread.i
  %28 = phi i64 [ %20, %.thread.i ], [ %27, %21 ]
  %29 = phi ptr [ %18, %.thread.i ], [ %25, %21 ]
  %.037.i = phi i64 [ 0, %.thread.i ], [ %24, %21 ]
  br label %.preheader.i

.preheader.i:                                     ; preds = %54, %.preheader.preheader.i
  %.02634.i = phi i64 [ %62, %54 ], [ %.037.i, %.preheader.preheader.i ]
  %30 = load ptr, ptr %16, align 8
  %.not.i.i = icmp eq ptr %30, null
  br i1 %.not.i.i, label %31, label %34

31:                                               ; preds = %.preheader.i
  %32 = tail call ptr @calloc_arena(i64 noundef 72) #10
  %33 = getelementptr inbounds i8, ptr %32, i64 4
  store i32 8, ptr %33, align 4
  br label %36

34:                                               ; preds = %.preheader.i
  %35 = getelementptr inbounds i8, ptr %30, i64 -8
  %.phi.trans.insert.i.i = getelementptr inbounds i8, ptr %30, i64 -4
  %.pre.i.i = load i32, ptr %.phi.trans.insert.i.i, align 4
  br label %36

36:                                               ; preds = %34, %31
  %37 = phi i32 [ %.pre.i.i, %34 ], [ 8, %31 ]
  %.0.i.i = phi ptr [ %35, %34 ], [ %32, %31 ]
  %38 = load i32, ptr %.0.i.i, align 4
  %39 = icmp eq i32 %38, %37
  br i1 %39, label %40, label %54

40:                                               ; preds = %36
  %41 = getelementptr inbounds i8, ptr %.0.i.i, i64 4
  %42 = shl i32 %37, 1
  %43 = zext i32 %42 to i64
  %44 = shl nuw nsw i64 %43, 3
  %45 = or disjoint i64 %44, 8
  %46 = tail call ptr @calloc_arena(i64 noundef %45) #10
  %47 = getelementptr inbounds i8, ptr %46, i64 4
  store i32 %42, ptr %47, align 4
  %48 = load i32, ptr %41, align 4
  %49 = zext i32 %48 to i64
  %50 = shl nuw nsw i64 %49, 3
  %51 = add nuw nsw i64 %50, 8
  tail call void @llvm.memcpy.p0.p0.i64(ptr noundef nonnull align 4 dereferenceable(1) %46, ptr noundef nonnull align 4 dereferenceable(1) %.0.i.i, i64 %51, i1 false)
  %52 = load i32, ptr %47, align 4
  %53 = shl i32 %52, 1
  store i32 %53, ptr %47, align 4
  %.pre18.i.i = load i32, ptr %46, align 4
  br label %54

54:                                               ; preds = %40, %36
  %55 = phi i32 [ %.pre18.i.i, %40 ], [ %38, %36 ]
  %.1.i.i = phi ptr [ %46, %40 ], [ %.0.i.i, %36 ]
  %56 = add i32 %55, 1
  store i32 %56, ptr %.1.i.i, align 4
  %57 = getelementptr inbounds i8, ptr %.1.i.i, i64 8
  store ptr %57, ptr %16, align 8
  %58 = load i32, ptr %.1.i.i, align 4
  %59 = add i32 %58, -1
  %60 = zext i32 %59 to i64
  %61 = getelementptr inbounds ptr, ptr %57, i64 %60
  store ptr %3, ptr %61, align 8
  %62 = add nuw nsw i64 %.02634.i, 1
  %exitcond.not.i = icmp eq i64 %.02634.i, %28
  br i1 %exitcond.not.i, label %sema_append_local.exit, label %.preheader.i, !llvm.loop !33

63:                                               ; preds = %21
  %64 = getelementptr inbounds ptr, ptr %17, i64 %27
  store ptr %3, ptr %64, align 8
  br label %sema_append_local.exit

sema_append_local.exit:                           ; preds = %54, %63
  %65 = phi ptr [ %25, %63 ], [ %29, %54 ]
  %66 = load i32, ptr %65, align 8
  %67 = add i32 %66, 1
  store i32 %67, ptr %65, align 8
  ret void
}